target datalayout = "e-m:e-p270:32:32-p271:32:32-p272:64:64-i64:64-i128:128-f80:128-n8:16:32:64-S128"
target triple = "x86_64-pc-linux-gnu"

%struct._zend_accel_globals = type { i8, i8, i8, i8, i8, %struct._zend_accel_directives, ptr, ptr, [32 x i8], [32 x i8], i32, i8, i32, i8, i32, i64, i64, %struct._zend_array, i64, ptr, ptr, ptr, ptr, %struct._zend_string, [32768 x i8] }
%struct._zend_accel_directives = type { i64, i64, double, ptr, i64, i8, i8, i8, i8, i8, i8, i8, i8, i8, i8, i8, i64, i64, ptr, ptr, i64, i64, i64, i64, i64, ptr, ptr, ptr, i8, i8, i8, ptr, ptr }
%struct._zend_array = type { %struct._zend_refcounted_h, %union.anon.0, i32, %union.anon.1, i32, i32, i32, i32, i64, ptr }
%struct._zend_refcounted_h = type { i32, %union.anon }
%union.anon = type { i32 }
%union.anon.0 = type { i32 }
%union.anon.1 = type { ptr }
%struct._zend_string = type { %struct._zend_refcounted_h, i64, i64, [1 x i8] }

@accel_globals = external global %struct._zend_accel_globals, align 8
@.str.168 = private unnamed_addr constant [90 x i8] c"Zend OPcache can't be temporary enabled (it may be only disabled till the end of request)\00", align 1

; Function Attrs: nounwind uwtable
define internal i32 @OnEnable(ptr noundef %0, ptr noundef %1, ptr noundef %2, ptr noundef %3, ptr noundef %4, i32 noundef %5) #0 {
  %7 = alloca i32, align 4
  %8 = alloca ptr, align 8
  %9 = alloca ptr, align 8
  %10 = alloca ptr, align 8
  %11 = alloca ptr, align 8
  %12 = alloca ptr, align 8
  %13 = alloca i32, align 4
  %14 = alloca ptr, align 8
  store ptr %0, ptr %8, align 8
  store ptr %1, ptr %9, align 8
  store ptr %2, ptr %10, align 8
  store ptr %3, ptr %11, align 8
  store ptr %4, ptr %12, align 8
  store i32 %5, ptr %13, align 4
  %15 = load i32, ptr %13, align 4
  %16 = icmp eq i32 %15, 1
  br i1 %16, label %23, label %17

17:                                               ; preds = %6
  %18 = load i32, ptr %13, align 4
  %19 = icmp eq i32 %18, 2
  br i1 %19, label %23, label %20

20:                                               ; preds = %17
  %21 = load i32, ptr %13, align 4
  %22 = icmp eq i32 %21, 8
  br i1 %22, label %23, label %31

23:                                               ; preds = %20, %17, %6
  %24 = load ptr, ptr %8, align 8
  %25 = load ptr, ptr %9, align 8
  %26 = load ptr, ptr %10, align 8
  %27 = load ptr, ptr %11, align 8
  %28 = load ptr, ptr %12, align 8
  %29 = load i32, ptr %13, align 4
  %30 = call i32 @OnUpdateBool(ptr noundef %24, ptr noundef %25, ptr noundef %26, ptr noundef %27, ptr noundef %28, i32 noundef %29)
  store i32 %30, ptr %7, align 4
  br label %41

31:                                               ; preds = %20
  %32 = load ptr, ptr %11, align 8
  %33 = load ptr, ptr %10, align 8
  %34 = ptrtoint ptr %33 to i64
  %35 = getelementptr inbounds i8, ptr %32, i64 %34
  store ptr %35, ptr %14, align 8
  %36 = load ptr, ptr %9, align 8
  %37 = call zeroext i1 @zend_ini_parse_bool(ptr noundef %36)
  br i1 %37, label %38, label %39

38:                                               ; preds = %31
  call void (i32, ptr, ...) @zend_error(i32 noundef 2, ptr noundef @.str.168)
  store i32 -1, ptr %7, align 4
  br label %41

39:                                               ; preds = %31
  %40 = load ptr, ptr %14, align 8
  store i8 0, ptr %40, align 1
  store i8 0, ptr getelementptr inbounds (%struct._zend_accel_globals, ptr @accel_globals, i32 0, i32 3), align 1
  store i32 0, ptr %7, align 4
  br label %41

41:                                               ; preds = %39, %38, %23
  %42 = load i32, ptr %7, align 4
  ret i32 %42
}