; Function Attrs: nounwind uwtable
define internal i32 @OnEnable(ptr noundef %0, ptr noundef %1, ptr noundef %2, ptr noundef %3, ptr noundef %4, i32 noundef %5) #0 {
  switch i32 %5, label %9 [
    i32 8, label %7
    i32 2, label %7
    i32 1, label %7
  ]

7:                                                ; preds = %6, %6, %6
  %8 = tail call i32 @OnUpdateBool(ptr noundef %0, ptr noundef %1, ptr noundef %2, ptr noundef %3, ptr noundef %4, i32 noundef %5) #14
  br label %15

9:                                                ; preds = %6
  %10 = tail call zeroext i1 @zend_ini_parse_bool(ptr noundef %1) #14
  br i1 %10, label %11, label %12

11:                                               ; preds = %9
  tail call void (i32, ptr, ...) @zend_error(i32 noundef 2, ptr noundef nonnull @.str.168) #14
  br label %15

12:                                               ; preds = %9
  %13 = ptrtoint ptr %2 to i64
  %14 = getelementptr inbounds i8, ptr %3, i64 %13
  store i8 0, ptr %14, align 1
  store i8 0, ptr getelementptr inbounds (%struct._zend_accel_globals, ptr @accel_globals, i64 0, i32 3), align 1
  br label %15

15:                                               ; preds = %12, %11, %7
  %.0 = phi i32 [ %8, %7 ], [ -1, %11 ], [ 0, %12 ]
  ret i32 %.0
}